target datalayout = "e-m:e-p270:32:32-p271:32:32-p272:64:64-i64:64-i128:128-f80:128-n8:16:32:64-S128"
target triple = "x86_64-pc-linux-gnu"

%struct.tm = type { i32, i32, i32, i32, i32, i32, i32, i32, i32, i64, ptr }

@.str.15 = private unnamed_addr constant [5 x i8] c"year\00", align 1
@.str.16 = private unnamed_addr constant [6 x i8] c"month\00", align 1
@.str.17 = private unnamed_addr constant [4 x i8] c"day\00", align 1
@.str.18 = private unnamed_addr constant [5 x i8] c"hour\00", align 1
@.str.19 = private unnamed_addr constant [4 x i8] c"min\00", align 1
@.str.20 = private unnamed_addr constant [4 x i8] c"sec\00", align 1
@.str.21 = private unnamed_addr constant [5 x i8] c"yday\00", align 1
@.str.22 = private unnamed_addr constant [5 x i8] c"wday\00", align 1
@.str.23 = private unnamed_addr constant [6 x i8] c"isdst\00", align 1

; Function Attrs: nounwind uwtable
define internal void @setboolfield(ptr noundef %0, ptr noundef %1, i32 noundef %2) #0 {
  %4 = alloca ptr, align 8
  %5 = alloca ptr, align 8
  %6 = alloca i32, align 4
  store ptr %0, ptr %4, align 8, !tbaa !4
  store ptr %1, ptr %5, align 8, !tbaa !9
  store i32 %2, ptr %6, align 4, !tbaa !20
  %7 = load i32, ptr %6, align 4, !tbaa !20
  %8 = icmp slt i32 %7, 0
  br i1 %8, label %9, label %10

9:                                                ; preds = %3
  br label %15

10:                                               ; preds = %3
  %11 = load ptr, ptr %4, align 8, !tbaa !4
  %12 = load i32, ptr %6, align 4, !tbaa !20
  call void @lua_pushboolean(ptr noundef %11, i32 noundef %12)
  %13 = load ptr, ptr %4, align 8, !tbaa !4
  %14 = load ptr, ptr %5, align 8, !tbaa !9
  call void @lua_setfield(ptr noundef %13, i32 noundef -2, ptr noundef %14)
  br label %15

15:                                               ; preds = %10, %9
  ret void
}

; Function Attrs: nounwind uwtable
define internal void @setfield(ptr noundef %0, ptr noundef %1, i32 noundef %2, i32 noundef %3) #0 {
  %5 = alloca ptr, align 8
  %6 = alloca ptr, align 8
  %7 = alloca i32, align 4
  %8 = alloca i32, align 4
  store ptr %0, ptr %5, align 8, !tbaa !4
  store ptr %1, ptr %6, align 8, !tbaa !9
  store i32 %2, ptr %7, align 4, !tbaa !20
  store i32 %3, ptr %8, align 4, !tbaa !20
  %9 = load ptr, ptr %5, align 8, !tbaa !4
  %10 = load i32, ptr %7, align 4, !tbaa !20
  %11 = sext i32 %10 to i64
  %12 = load i32, ptr %8, align 4, !tbaa !20
  %13 = sext i32 %12 to i64
  %14 = add nsw i64 %11, %13
  call void @lua_pushinteger(ptr noundef %9, i64 noundef %14)
  %15 = load ptr, ptr %5, align 8, !tbaa !4
  %16 = load ptr, ptr %6, align 8, !tbaa !9
  call void @lua_setfield(ptr noundef %15, i32 noundef -2, ptr noundef %16)
  ret void
}

; Function Attrs: nounwind uwtable
define internal void @setallfields(ptr noundef %0, ptr noundef %1) #0 {
  %3 = alloca ptr, align 8
  %4 = alloca ptr, align 8
  store ptr %0, ptr %3, align 8, !tbaa !4
  store ptr %1, ptr %4, align 8, !tbaa !14
  %5 = load ptr, ptr %3, align 8, !tbaa !4
  %6 = load ptr, ptr %4, align 8, !tbaa !14
  %7 = getelementptr inbounds nuw %struct.tm, ptr %6, i32 0, i32 5
  %8 = load i32, ptr %7, align 4, !tbaa !22
  call void @setfield(ptr noundef %5, ptr noundef @.str.15, i32 noundef %8, i32 noundef 1900)
  %9 = load ptr, ptr %3, align 8, !tbaa !4
  %10 = load ptr, ptr %4, align 8, !tbaa !14
  %11 = getelementptr inbounds nuw %struct.tm, ptr %10, i32 0, i32 4
  %12 = load i32, ptr %11, align 8, !tbaa !24
  call void @setfield(ptr noundef %9, ptr noundef @.str.16, i32 noundef %12, i32 noundef 1)
  %13 = load ptr, ptr %3, align 8, !tbaa !4
  %14 = load ptr, ptr %4, align 8, !tbaa !14
  %15 = getelementptr inbounds nuw %struct.tm, ptr %14, i32 0, i32 3
  %16 = load i32, ptr %15, align 4, !tbaa !25
  call void @setfield(ptr noundef %13, ptr noundef @.str.17, i32 noundef %16, i32 noundef 0)
  %17 = load ptr, ptr %3, align 8, !tbaa !4
  %18 = load ptr, ptr %4, align 8, !tbaa !14
  %19 = getelementptr inbounds nuw %struct.tm, ptr %18, i32 0, i32 2
  %20 = load i32, ptr %19, align 8, !tbaa !26
  call void @setfield(ptr noundef %17, ptr noundef @.str.18, i32 noundef %20, i32 noundef 0)
  %21 = load ptr, ptr %3, align 8, !tbaa !4
  %22 = load ptr, ptr %4, align 8, !tbaa !14
  %23 = getelementptr inbounds nuw %struct.tm, ptr %22, i32 0, i32 1
  %24 = load i32, ptr %23, align 4, !tbaa !27
  call void @setfield(ptr noundef %21, ptr noundef @.str.19, i32 noundef %24, i32 noundef 0)
  %25 = load ptr, ptr %3, align 8, !tbaa !4
  %26 = load ptr, ptr %4, align 8, !tbaa !14
  %27 = getelementptr inbounds nuw %struct.tm, ptr %26, i32 0, i32 0
  %28 = load i32, ptr %27, align 8, !tbaa !28
  call void @setfield(ptr noundef %25, ptr noundef @.str.20, i32 noundef %28, i32 noundef 0)
  %29 = load ptr, ptr %3, align 8, !tbaa !4
  %30 = load ptr, ptr %4, align 8, !tbaa !14
  %31 = getelementptr inbounds nuw %struct.tm, ptr %30, i32 0, i32 7
  %32 = load i32, ptr %31, align 4, !tbaa !32
  call void @setfield(ptr noundef %29, ptr noundef @.str.21, i32 noundef %32, i32 noundef 1)
  %33 = load ptr, ptr %3, align 8, !tbaa !4
  %34 = load ptr, ptr %4, align 8, !tbaa !14
  %35 = getelementptr inbounds nuw %struct.tm, ptr %34, i32 0, i32 6
  %36 = load i32, ptr %35, align 8, !tbaa !33
  call void @setfield(ptr noundef %33, ptr noundef @.str.22, i32 noundef %36, i32 noundef 1)
  %37 = load ptr, ptr %3, align 8, !tbaa !4
  %38 = load ptr, ptr %4, align 8, !tbaa !14
  %39 = getelementptr inbounds nuw %struct.tm, ptr %38, i32 0, i32 8
  %40 = load i32, ptr %39, align 8, !tbaa !29
  call void @setboolfield(ptr noundef %37, ptr noundef @.str.23, i32 noundef %40)
  ret void
}