; Function Attrs: nounwind uwtable
define internal fastcc void @setallfields(ptr noundef %0, ptr noundef nonnull readonly captures(none) %1) unnamed_addr #0 {
  %3 = getelementptr inbounds nuw i8, ptr %1, i64 20
  %4 = load i32, ptr %3, align 4, !tbaa !18
  %5 = sext i32 %4 to i64
  %6 = add nsw i64 %5, 1900
  tail call void @lua_pushinteger(ptr noundef %0, i64 noundef %6) #12
  tail call void @lua_setfield(ptr noundef %0, i32 noundef -2, ptr noundef nonnull @.str.15) #12
  %7 = getelementptr inbounds nuw i8, ptr %1, i64 16
  %8 = load i32, ptr %7, align 8, !tbaa !20
  %9 = sext i32 %8 to i64
  %10 = add nsw i64 %9, 1
  tail call void @lua_pushinteger(ptr noundef %0, i64 noundef %10) #12
  tail call void @lua_setfield(ptr noundef %0, i32 noundef -2, ptr noundef nonnull @.str.16) #12
  %11 = getelementptr inbounds nuw i8, ptr %1, i64 12
  %12 = load i32, ptr %11, align 4, !tbaa !21
  %13 = sext i32 %12 to i64
  tail call void @lua_pushinteger(ptr noundef %0, i64 noundef %13) #12
  tail call void @lua_setfield(ptr noundef %0, i32 noundef -2, ptr noundef nonnull @.str.17) #12
  %14 = getelementptr inbounds nuw i8, ptr %1, i64 8
  %15 = load i32, ptr %14, align 8, !tbaa !23
  %16 = sext i32 %15 to i64
  tail call void @lua_pushinteger(ptr noundef %0, i64 noundef %16) #12
  tail call void @lua_setfield(ptr noundef %0, i32 noundef -2, ptr noundef nonnull @.str.18) #12
  %17 = getelementptr inbounds nuw i8, ptr %1, i64 4
  %18 = load i32, ptr %17, align 4, !tbaa !24
  %19 = sext i32 %18 to i64
  tail call void @lua_pushinteger(ptr noundef %0, i64 noundef %19) #12
  tail call void @lua_setfield(ptr noundef %0, i32 noundef -2, ptr noundef nonnull @.str.19) #12
  %20 = load i32, ptr %1, align 8, !tbaa !25
  %21 = sext i32 %20 to i64
  tail call void @lua_pushinteger(ptr noundef %0, i64 noundef %21) #12
  tail call void @lua_setfield(ptr noundef %0, i32 noundef -2, ptr noundef nonnull @.str.20) #12
  %22 = getelementptr inbounds nuw i8, ptr %1, i64 28
  %23 = load i32, ptr %22, align 4, !tbaa !28
  %24 = sext i32 %23 to i64
  %25 = add nsw i64 %24, 1
  tail call void @lua_pushinteger(ptr noundef %0, i64 noundef %25) #12
  tail call void @lua_setfield(ptr noundef %0, i32 noundef -2, ptr noundef nonnull @.str.21) #12
  %26 = getelementptr inbounds nuw i8, ptr %1, i64 24
  %27 = load i32, ptr %26, align 8, !tbaa !29
  %28 = sext i32 %27 to i64
  %29 = add nsw i64 %28, 1
  tail call void @lua_pushinteger(ptr noundef %0, i64 noundef %29) #12
  tail call void @lua_setfield(ptr noundef %0, i32 noundef -2, ptr noundef nonnull @.str.22) #12
  %30 = getelementptr inbounds nuw i8, ptr %1, i64 32
  %31 = load i32, ptr %30, align 8, !tbaa !26
  %32 = icmp slt i32 %31, 0
  br i1 %32, label %setboolfield.exit, label %33

33:                                               ; preds = %2
  tail call void @lua_pushboolean(ptr noundef %0, i32 noundef %31) #12
  tail call void @lua_setfield(ptr noundef %0, i32 noundef -2, ptr noundef nonnull @.str.23) #12
  br label %setboolfield.exit

setboolfield.exit:                                ; preds = %2, %33
  ret void
}